(dp0
I0
(dp1
S'count'
p2
I419
sS'complete'
p3
I00
sS'numSubClustersOver350'
p4
I0
sS'url'
p5
Vhttps://www.redfin.com/zipcode/94609/filter/include=sold-all,viewport=37.82655:37.81765:-122.26522:-122.27738
p6
sS'listingUrls'
p7
(lp8
Vhttps://www.redfin.com/CA/Oakland/2833-Martin-Luther-King-Junior-Way-94609/home/1815722
p9
aVhttps://www.redfin.com/CA/Oakland/668-30th-St-94609/home/1710946
p10
aVhttps://www.redfin.com/CA/Oakland/696-31st-St-94609/home/1961768
p11
aVhttps://www.redfin.com/CA/Oakland/716-30th-St-94609/home/1495474
p12
aVhttps://www.redfin.com/CA/Oakland/717-31st-St-94609/home/22730248
p13
aVhttps://www.redfin.com/CA/Oakland/2934-West-St-94608/home/840297
p14
aVhttps://www.redfin.com/CA/Oakland/744-29th-St-94609/home/1840854
p15
aVhttps://www.redfin.com/CA/Oakland/692-30th-St-94609/home/1352453
p16
aVhttps://www.redfin.com/CA/Oakland/730-29th-St-94609/unit-201/home/22963741
p17
aVhttps://www.redfin.com/CA/Oakland/661-31st-St-94609/home/1797375
p18
aVhttps://www.redfin.com/CA/Oakland/756-29th-St-94609/home/1094854
p19
aVhttps://www.redfin.com/CA/Oakland/730-29th-St-94609/unit-105/home/22963744
p20
aVhttps://www.redfin.com/CA/Oakland/691-31st-St-94609/home/525583
p21
aVhttps://www.redfin.com/CA/Oakland/730-29th-St-94609/unit-4C/home/22963729
p22
aVhttps://www.redfin.com/CA/Oakland/685-30th-St-94609/home/1986189
p23
aVhttps://www.redfin.com/CA/Oakland/730-29th-St-94609/unit-C-8/home/103455834
p24
aVhttps://www.redfin.com/CA/Oakland/695-31st-St-94609/home/833213
p25
aVhttps://www.redfin.com/CA/Oakland/728-30th-St-94609/home/525563
p26
aVhttps://www.redfin.com/CA/Oakland/748-29th-St-94609/home/762381
p27
aVhttps://www.redfin.com/CA/Oakland/701-32nd-St-94609/home/2016905
p28
aVhttps://www.redfin.com/CA/Oakland/702-31st-St-94609/home/1901670
p29
aVhttps://www.redfin.com/CA/Oakland/696-29th-St-94609/home/1113196
p30
aVhttps://www.redfin.com/CA/Oakland/734-30th-St-94609/home/1929168
p31
aVhttps://www.redfin.com/CA/Oakland/730-29th-St-94609/unit-118/home/16892788
p32
aVhttps://www.redfin.com/CA/Oakland/3018-West-St-94608/home/1669783
p33
aVhttps://www.redfin.com/CA/Oakland/712-29th-St-94609/home/525538
p34
aVhttps://www.redfin.com/CA/Oakland/3015-Martin-Luther-King-Junior-Way-94609/home/1840862
p35
aVhttps://www.redfin.com/CA/Oakland/3007-Martin-Luther-King-Junior-Way-94609/home/1605407
p36
aVhttps://www.redfin.com/CA/Oakland/730-31st-St-94609/home/525692
p37
aVhttps://www.redfin.com/CA/Oakland/726-31st-St-94609/home/1842031
p38
aVhttps://www.redfin.com/CA/Oakland/730-29th-St-94609/unit-111/home/17188294
p39
aVhttps://www.redfin.com/CA/Oakland/730-29th-St-94609/unit-12/home/11909800
p40
aVhttps://www.redfin.com/CA/Oakland/670-29th-St-94609/home/1924330
p41
aVhttps://www.redfin.com/CA/Oakland/Martin-Luther-King-Junior-Way-94609/home/22715685
p42
aVhttps://www.redfin.com/CA/Oakland/711-32nd-St-94609/home/1266872
p43
aVhttps://www.redfin.com/CA/Oakland/3008-West-St-94608/home/525564
p44
aVhttps://www.redfin.com/CA/Oakland/698-30th-St-94609/home/1542091
p45
aVhttps://www.redfin.com/CA/Oakland/3001-Martin-Luther-King-Junior-Way-94609/home/878876
p46
aVhttps://www.redfin.com/CA/Oakland/722-30th-St-94609/home/1999721
p47
aVhttps://www.redfin.com/CA/Oakland/2915-Martin-Luther-King-Junior-Way-94609/home/548997
p48
aVhttps://www.redfin.com/CA/Oakland/730-29th-St-94609/unit-215/home/21728641
p49
aVhttps://www.redfin.com/CA/Oakland/730-29th-St-94609/unit-109/home/22963734
p50
aVhttps://www.redfin.com/CA/Oakland/705-31st-St-94609/home/1854829
p51
aVhttps://www.redfin.com/CA/Oakland/730-29th-St-94609/unit-7/home/12348911
p52
aVhttps://www.redfin.com/CA/Oakland/730-29th-St-94609/unit-205/home/11911556
p53
aVhttps://www.redfin.com/CA/Oakland/730-29th-St-94609/unit-8C/home/22963726
p54
aVhttps://www.redfin.com/CA/Oakland/689-30th-St-94609/unit-C/home/1523075
p55
aVhttps://www.redfin.com/CA/Oakland/721-31st-St-94609/home/1832244
p56
aVhttps://www.redfin.com/CA/Oakland/699-30th-St-94609/home/1880794
p57
aVhttps://www.redfin.com/CA/Oakland/3005-Martin-Luther-King-Junior-Way-94609/home/1545554
p58
aVhttps://www.redfin.com/CA/Oakland/2926-West-St-94608/home/1679455
p59
aVhttps://www.redfin.com/CA/Oakland/730-29th-St-94609/unit-11C/home/22963723
p60
aVhttps://www.redfin.com/CA/Oakland/730-29th-St-94609/unit-206/home/12062276
p61
aVhttps://www.redfin.com/CA/Oakland/700-29th-St-94609/home/1664683
p62
aVhttps://www.redfin.com/CA/Oakland/2827-Martin-Luther-King-Junior-Way-94609/home/1284631
p63
aVhttps://www.redfin.com/CA/Oakland/730-29th-St-94609/unit-209/home/22963736
p64
aVhttps://www.redfin.com/CA/Oakland/730-29th-St-94609/unit-211/home/12343691
p65
aVhttps://www.redfin.com/CA/Oakland/681-30th-St-94609/home/1627256
p66
aVhttps://www.redfin.com/CA/Oakland/2903-Martin-Luther-King-Junior-Way-94609/home/1773653
p67
aVhttps://www.redfin.com/CA/Oakland/730-29th-St-94609/unit-107/home/12075643
p68
aVhttps://www.redfin.com/CA/Oakland/722-31st-St-94609/home/1909860
p69
aVhttps://www.redfin.com/CA/Oakland/730-29th-St-94609/unit-1C/home/22963732
p70
aVhttps://www.redfin.com/CA/Oakland/730-29th-St-94609/unit-212/home/22963733
p71
aVhttps://www.redfin.com/CA/Oakland/708-31st-St-94609/home/1494503
p72
aVhttps://www.redfin.com/CA/Oakland/3118-West-St-94608/home/1868561
p73
aVhttps://www.redfin.com/CA/Oakland/682-30th-St-94609/home/2016901
p74
aVhttps://www.redfin.com/CA/Oakland/734-31st-St-94609/home/1234128
p75
aVhttps://www.redfin.com/CA/Oakland/730-29th-St-94609/unit-C12/home/107605789
p76
aVhttps://www.redfin.com/CA/Oakland/699-31st-St-94609/home/1416376
p77
aVhttps://www.redfin.com/CA/Oakland/2925-Martin-Luther-King-Junior-Way-94609/home/2013070
p78
aVhttps://www.redfin.com/CA/Oakland/714-31st-St-94609/home/1039557
p79
aVhttps://www.redfin.com/CA/Oakland/729-31st-St-94609/home/525566
p80
aVhttps://www.redfin.com/CA/Oakland/730-29th-St-94609/unit-208/home/21943786
p81
aVhttps://www.redfin.com/CA/Oakland/2823-Martin-Luther-King-Junior-Way-94609/home/942159
p82
asS'subClusters'
p83
(dp84
I0
(dp85
g2
I57
sg7
(lp86
Vhttps://www.redfin.com/CA/Oakland/3008-West-St-94608/home/525564
p87
aVhttps://www.redfin.com/CA/Oakland/728-30th-St-94609/home/525563
p88
aVhttps://www.redfin.com/CA/Oakland/730-29th-St-94609/unit-C12/home/107605789
p89
aVhttps://www.redfin.com/CA/Oakland/730-29th-St-94609/unit-12/home/11909800
p90
aVhttps://www.redfin.com/CA/Oakland/682-30th-St-94609/home/2016901
p91
aVhttps://www.redfin.com/CA/Oakland/730-29th-St-94609/unit-105/home/22963744
p92
aVhttps://www.redfin.com/CA/Oakland/734-30th-St-94609/home/1929168
p93
aVhttps://www.redfin.com/CA/Oakland/696-29th-St-94609/home/1113196
p94
aVhttps://www.redfin.com/CA/Oakland/2833-Martin-Luther-King-Junior-Way-94609/home/1815722
p95
aVhttps://www.redfin.com/CA/Oakland/730-29th-St-94609/unit-205/home/11911556
p96
aVhttps://www.redfin.com/CA/Oakland/730-29th-St-94609/unit-107/home/12075643
p97
aVhttps://www.redfin.com/CA/Oakland/722-30th-St-94609/home/1999721
p98
aVhttps://www.redfin.com/CA/Oakland/698-30th-St-94609/home/1542091
p99
aVhttps://www.redfin.com/CA/Oakland/730-29th-St-94609/unit-206/home/12062276
p100
aVhttps://www.redfin.com/CA/Oakland/2903-Martin-Luther-King-Junior-Way-94609/home/1773653
p101
aVhttps://www.redfin.com/CA/Oakland/3005-Martin-Luther-King-Junior-Way-94609/home/1545554
p102
aVhttps://www.redfin.com/CA/Oakland/730-29th-St-94609/unit-208/home/21943786
p103
aVhttps://www.redfin.com/CA/Oakland/730-29th-St-94609/unit-C-8/home/103455834
p104
aVhttps://www.redfin.com/CA/Oakland/670-29th-St-94609/home/1924330
p105
aVhttps://www.redfin.com/CA/Oakland/748-29th-St-94609/home/762381
p106
aVhttps://www.redfin.com/CA/Oakland/730-29th-St-94609/unit-212/home/22963733
p107
aVhttps://www.redfin.com/CA/Oakland/730-29th-St-94609/unit-109/home/22963734
p108
aVhttps://www.redfin.com/CA/Oakland/730-29th-St-94609/unit-209/home/22963736
p109
aVhttps://www.redfin.com/CA/Oakland/730-29th-St-94609/unit-201/home/22963741
p110
aVhttps://www.redfin.com/CA/Oakland/3001-Martin-Luther-King-Junior-Way-94609/home/878876
p111
aVhttps://www.redfin.com/CA/Oakland/661-31st-St-94609/home/1797375
p112
aVhttps://www.redfin.com/CA/Oakland/730-29th-St-94609/unit-7/home/12348911
p113
aVhttps://www.redfin.com/CA/Oakland/756-29th-St-94609/home/1094854
p114
aVhttps://www.redfin.com/CA/Oakland/2925-Martin-Luther-King-Junior-Way-94609/home/2013070
p115
aVhttps://www.redfin.com/CA/Oakland/730-29th-St-94609/unit-118/home/16892788
p116
aVhttps://www.redfin.com/CA/Oakland/712-29th-St-94609/home/525538
p117
aVhttps://www.redfin.com/CA/Oakland/730-29th-St-94609/unit-111/home/17188294
p118
aVhttps://www.redfin.com/CA/Oakland/730-29th-St-94609/unit-215/home/21728641
p119
aVhttps://www.redfin.com/CA/Oakland/685-30th-St-94609/home/1986189
p120
aVhttps://www.redfin.com/CA/Oakland/716-30th-St-94609/home/1495474
p121
aVhttps://www.redfin.com/CA/Oakland/2934-West-St-94608/home/840297
p122
aVhttps://www.redfin.com/CA/Oakland/681-30th-St-94609/home/1627256
p123
aVhttps://www.redfin.com/CA/Oakland/744-29th-St-94609/home/1840854
p124
aVhttps://www.redfin.com/CA/Oakland/3015-Martin-Luther-King-Junior-Way-94609/home/1840862
p125
aVhttps://www.redfin.com/CA/Oakland/730-29th-St-94609/unit-211/home/12343691
p126
aVhttps://www.redfin.com/CA/Oakland/2827-Martin-Luther-King-Junior-Way-94609/home/1284631
p127
aVhttps://www.redfin.com/CA/Oakland/668-30th-St-94609/home/1710946
p128
aVhttps://www.redfin.com/CA/Oakland/Martin-Luther-King-Junior-Way-94609/home/22715685
p129
aVhttps://www.redfin.com/CA/Oakland/2823-Martin-Luther-King-Junior-Way-94609/home/942159
p130
aVhttps://www.redfin.com/CA/Oakland/2926-West-St-94608/home/1679455
p131
aVhttps://www.redfin.com/CA/Oakland/2915-Martin-Luther-King-Junior-Way-94609/home/548997
p132
aVhttps://www.redfin.com/CA/Oakland/692-30th-St-94609/home/1352453
p133
aVhttps://www.redfin.com/CA/Oakland/730-29th-St-94609/unit-11C/home/22963723
p134
aVhttps://www.redfin.com/CA/Oakland/730-29th-St-94609/unit-8C/home/22963726
p135
aVhttps://www.redfin.com/CA/Oakland/730-29th-St-94609/unit-4C/home/22963729
p136
aVhttps://www.redfin.com/CA/Oakland/730-29th-St-94609/unit-1C/home/22963732
p137
aVhttps://www.redfin.com/CA/Oakland/700-29th-St-94609/home/1664683
p138
aVhttps://www.redfin.com/CA/Oakland/699-30th-St-94609/home/1880794
p139
aVhttps://www.redfin.com/CA/Oakland/3018-West-St-94608/home/1669783
p140
aVhttps://www.redfin.com/CA/Oakland/689-30th-St-94609/unit-C/home/1523075
p141
aVhttps://www.redfin.com/CA/Oakland/3007-Martin-Luther-King-Junior-Way-94609/home/1605407
p142
asg5
Vhttps://www.redfin.com/zipcode/94609/filter/include=sold-all,viewport=37.82049:37.81826:-122.27112:-122.27416
p143
sg3
I01
sS'clickable'
p144
I01
ssI1
(dp145
S'count'
p146
I18
sS'clickable'
p147
I01
sS'listingUrls'
p148
(lp149
Vhttps://www.redfin.com/CA/Oakland/696-31st-St-94609/home/1961768
p150
aVhttps://www.redfin.com/CA/Oakland/734-31st-St-94609/home/1234128
p151
aVhttps://www.redfin.com/CA/Oakland/701-32nd-St-94609/home/2016905
p152
aVhttps://www.redfin.com/CA/Oakland/3118-West-St-94608/home/1868561
p153
aVhttps://www.redfin.com/CA/Oakland/705-31st-St-94609/home/1854829
p154
aVhttps://www.redfin.com/CA/Oakland/726-31st-St-94609/home/1842031
p155
aVhttps://www.redfin.com/CA/Oakland/695-31st-St-94609/home/833213
p156
aVhttps://www.redfin.com/CA/Oakland/702-31st-St-94609/home/1901670
p157
aVhttps://www.redfin.com/CA/Oakland/729-31st-St-94609/home/525566
p158
aVhttps://www.redfin.com/CA/Oakland/691-31st-St-94609/home/525583
p159
aVhttps://www.redfin.com/CA/Oakland/730-31st-St-94609/home/525692
p160
aVhttps://www.redfin.com/CA/Oakland/708-31st-St-94609/home/1494503
p161
aVhttps://www.redfin.com/CA/Oakland/711-32nd-St-94609/home/1266872
p162
aVhttps://www.redfin.com/CA/Oakland/717-31st-St-94609/home/22730248
p163
aVhttps://www.redfin.com/CA/Oakland/699-31st-St-94609/home/1416376
p164
aVhttps://www.redfin.com/CA/Oakland/714-31st-St-94609/home/1039557
p165
aVhttps://www.redfin.com/CA/Oakland/722-31st-St-94609/home/1909860
p166
aVhttps://www.redfin.com/CA/Oakland/721-31st-St-94609/home/1832244
p167
asS'url'
p168
Vhttps://www.redfin.com/zipcode/94609/filter/include=sold-all,viewport=37.82158:37.82047:-122.27198:-122.2735
p169
sS'complete'
p170
I01
ssI2
(dp171
g146
I15
sg147
I01
sg148
(lp172
Vhttps://www.redfin.com/CA/Oakland/3008-West-St-94608/home/525564
p173
aVhttps://www.redfin.com/CA/Oakland/728-30th-St-94609/home/525563
p174
aVhttps://www.redfin.com/CA/Oakland/734-30th-St-94609/home/1929168
p175
aVhttps://www.redfin.com/CA/Oakland/722-30th-St-94609/home/1999721
p176
aVhttps://www.redfin.com/CA/Oakland/698-30th-St-94609/home/1542091
p177
aVhttps://www.redfin.com/CA/Oakland/705-31st-St-94609/home/1854829
p178
aVhttps://www.redfin.com/CA/Oakland/695-31st-St-94609/home/833213
p179
aVhttps://www.redfin.com/CA/Oakland/729-31st-St-94609/home/525566
p180
aVhttps://www.redfin.com/CA/Oakland/691-31st-St-94609/home/525583
p181
aVhttps://www.redfin.com/CA/Oakland/716-30th-St-94609/home/1495474
p182
aVhttps://www.redfin.com/CA/Oakland/717-31st-St-94609/home/22730248
p183
aVhttps://www.redfin.com/CA/Oakland/699-31st-St-94609/home/1416376
p184
aVhttps://www.redfin.com/CA/Oakland/692-30th-St-94609/home/1352453
p185
aVhttps://www.redfin.com/CA/Oakland/721-31st-St-94609/home/1832244
p186
aVhttps://www.redfin.com/CA/Oakland/3018-West-St-94608/home/1669783
p187
asg168
Vhttps://www.redfin.com/zipcode/94609/filter/include=sold-all,viewport=37.82094:37.81982:-122.27195:-122.27347
p188
sg170
I01
ssI3
(dp189
g146
I20
sg147
I01
sg148
(lp190
Vhttps://www.redfin.com/CA/Oakland/3117-Martin-Luther-King-Junior-Way-94609/home/1832249
p191
aVhttps://www.redfin.com/CA/Oakland/696-31st-St-94609/home/1961768
p192
aVhttps://www.redfin.com/CA/Oakland/688-31st-St-94609/home/1328258
p193
aVhttps://www.redfin.com/CA/Oakland/676-31st-St-94609/home/1494496
p194
aVhttps://www.redfin.com/CA/Oakland/679-31st-St-94609/home/676383
p195
aVhttps://www.redfin.com/CA/Oakland/3105-Martin-Luther-King-Junior-Way-94609/home/1431378
p196
aVhttps://www.redfin.com/CA/Oakland/3109-Martin-Luther-King-Junior-Way-94609/home/1726314
p197
aVhttps://www.redfin.com/CA/Oakland/692-31st-St-94609/home/1698132
p198
aVhttps://www.redfin.com/CA/Oakland/661-31st-St-94609/home/1797375
p199
aVhttps://www.redfin.com/CA/Oakland/695-31st-St-94609/home/833213
p200
aVhttps://www.redfin.com/CA/Oakland/702-31st-St-94609/home/1901670
p201
aVhttps://www.redfin.com/CA/Oakland/691-31st-St-94609/home/525583
p202
aVhttps://www.redfin.com/CA/Oakland/684-31st-St-94609/home/1410732
p203
aVhttps://www.redfin.com/CA/Oakland/708-31st-St-94609/home/1494503
p204
aVhttps://www.redfin.com/CA/Oakland/664-31st-St-94609/home/1464171
p205
aVhttps://www.redfin.com/CA/Oakland/714-31st-St-94609/home/1039557
p206
aVhttps://www.redfin.com/CA/Oakland/3175-Martin-Luther-King-Junior-Way-94609/home/1974018
p207
aVhttps://www.redfin.com/CA/Oakland/673-31st-St-94609/home/1698127
p208
aVhttps://www.redfin.com/CA/Oakland/680-31st-St-94609/home/1929178
p209
aVhttps://www.redfin.com/CA/Oakland/675-31st-St-94609/home/1094860
p210
asg168
Vhttps://www.redfin.com/zipcode/94609/filter/include=sold-all,viewport=37.82133:37.82021:-122.27096:-122.27248
p211
sg170
I01
ssI4
(dp212
g146
I15
sg170
I01
sg148
(lp213
Vhttps://www.redfin.com/CA/Oakland/2840-Martin-Luther-King-Junior-Way-94609/home/1396989
p214
aVhttps://www.redfin.com/CA/Oakland/2904-Martin-Luther-King-Junior-Way-94609/home/525575
p215
aVhttps://www.redfin.com/CA/Oakland/2833-Martin-Luther-King-Junior-Way-94609/home/1815722
p216
aVhttps://www.redfin.com/CA/Oakland/630-28th-St-94609/home/1870984
p217
aVhttps://www.redfin.com/CA/Oakland/2903-Martin-Luther-King-Junior-Way-94609/home/1773653
p218
aVhttps://www.redfin.com/CA/Oakland/670-29th-St-94609/home/1924330
p219
aVhttps://www.redfin.com/CA/Oakland/2925-Martin-Luther-King-Junior-Way-94609/home/2013070
p220
aVhttps://www.redfin.com/CA/Oakland/638-28th-St-94609/home/1443840
p221
aVhttps://www.redfin.com/CA/Oakland/644-28th-St-94609/home/1284390
p222
aVhttps://www.redfin.com/CA/Oakland/2827-Martin-Luther-King-Junior-Way-94609/home/1284631
p223
aVhttps://www.redfin.com/CA/Oakland/Martin-Luther-King-Junior-Way-94609/home/22715685
p224
aVhttps://www.redfin.com/CA/Oakland/2823-Martin-Luther-King-Junior-Way-94609/home/942159
p225
aVhttps://www.redfin.com/CA/Oakland/2915-Martin-Luther-King-Junior-Way-94609/home/548997
p226
aVhttps://www.redfin.com/CA/Oakland/2910-Martin-Luther-King-Junior-Way-94609/home/864930
p227
aVhttps://www.redfin.com/CA/Oakland/2836-Martin-Luther-King-Junior-Way-94609/home/2013073
p228
asg168
Vhttps://www.redfin.com/zipcode/94609/filter/include=sold-all,viewport=37.81935:37.81824:-122.27051:-122.27203
p229
sg147
I01
ssI5
(dp230
S'count'
p231
I67
sS'clickable'
p232
I01
sS'url'
p233
Vhttps://www.redfin.com/zipcode/94609/filter/include=sold-all,viewport=37.82081:37.81859:-122.26983:-122.27287
p234
sS'complete'
p235
I01
sS'listingUrls'
p236
(lp237
Vhttps://www.redfin.com/CA/Oakland/3030-Martin-Luther-King-Junior-Way-94609/home/525580
p238
aVhttps://www.redfin.com/CA/Oakland/728-30th-St-94609/home/525563
p239
aVhttps://www.redfin.com/CA/Oakland/730-29th-St-94609/unit-C12/home/107605789
p240
aVhttps://www.redfin.com/CA/Oakland/730-29th-St-94609/unit-12/home/11909800
p241
aVhttps://www.redfin.com/CA/Oakland/2840-Martin-Luther-King-Junior-Way-94609/home/1396989
p242
aVhttps://www.redfin.com/CA/Oakland/682-30th-St-94609/home/2016901
p243
aVhttps://www.redfin.com/CA/Oakland/730-29th-St-94609/unit-105/home/22963744
p244
aVhttps://www.redfin.com/CA/Oakland/2904-Martin-Luther-King-Junior-Way-94609/home/525575
p245
aVhttps://www.redfin.com/CA/Oakland/2922-Martin-Luther-King-Junior-Way-94609/home/1909834
p246
aVhttps://www.redfin.com/CA/Oakland/696-29th-St-94609/home/1113196
p247
aVhttps://www.redfin.com/CA/Oakland/730-29th-St-94609/unit-205/home/11911556
p248
aVhttps://www.redfin.com/CA/Oakland/730-29th-St-94609/unit-107/home/12075643
p249
aVhttps://www.redfin.com/CA/Oakland/722-30th-St-94609/home/1999721
p250
aVhttps://www.redfin.com/CA/Oakland/698-30th-St-94609/home/1542091
p251
aVhttps://www.redfin.com/CA/Oakland/705-31st-St-94609/home/1854829
p252
aVhttps://www.redfin.com/CA/Oakland/730-29th-St-94609/unit-206/home/12062276
p253
aVhttps://www.redfin.com/CA/Oakland/2903-Martin-Luther-King-Junior-Way-94609/home/1773653
p254
aVhttps://www.redfin.com/CA/Oakland/679-31st-St-94609/home/676383
p255
aVhttps://www.redfin.com/CA/Oakland/3005-Martin-Luther-King-Junior-Way-94609/home/1545554
p256
aVhttps://www.redfin.com/CA/Oakland/730-29th-St-94609/unit-208/home/21943786
p257
aVhttps://www.redfin.com/CA/Oakland/3105-Martin-Luther-King-Junior-Way-94609/home/1431378
p258
aVhttps://www.redfin.com/CA/Oakland/730-29th-St-94609/unit-C-8/home/103455834
p259
aVhttps://www.redfin.com/CA/Oakland/670-29th-St-94609/home/1924330
p260
aVhttps://www.redfin.com/CA/Oakland/730-29th-St-94609/unit-212/home/22963733
p261
aVhttps://www.redfin.com/CA/Oakland/730-29th-St-94609/unit-109/home/22963734
p262
aVhttps://www.redfin.com/CA/Oakland/730-29th-St-94609/unit-209/home/22963736
p263
aVhttps://www.redfin.com/CA/Oakland/730-29th-St-94609/unit-201/home/22963741
p264
aVhttps://www.redfin.com/CA/Oakland/3001-Martin-Luther-King-Junior-Way-94609/home/878876
p265
aVhttps://www.redfin.com/CA/Oakland/661-31st-St-94609/home/1797375
p266
aVhttps://www.redfin.com/CA/Oakland/730-29th-St-94609/unit-7/home/12348911
p267
aVhttps://www.redfin.com/CA/Oakland/695-31st-St-94609/home/833213
p268
aVhttps://www.redfin.com/CA/Oakland/2925-Martin-Luther-King-Junior-Way-94609/home/2013070
p269
aVhttps://www.redfin.com/CA/Oakland/3034-Martin-Luther-King-Junior-Way-94609/home/999323
p270
aVhttps://www.redfin.com/CA/Oakland/730-29th-St-94609/unit-118/home/16892788
p271
aVhttps://www.redfin.com/CA/Oakland/712-29th-St-94609/home/525538
p272
aVhttps://www.redfin.com/CA/Oakland/691-31st-St-94609/home/525583
p273
aVhttps://www.redfin.com/CA/Oakland/730-29th-St-94609/unit-111/home/17188294
p274
aVhttps://www.redfin.com/CA/Oakland/730-29th-St-94609/unit-215/home/21728641
p275
aVhttps://www.redfin.com/CA/Oakland/685-30th-St-94609/home/1986189
p276
aVhttps://www.redfin.com/CA/Oakland/716-30th-St-94609/home/1495474
p277
aVhttps://www.redfin.com/CA/Oakland/681-30th-St-94609/home/1627256
p278
aVhttps://www.redfin.com/CA/Oakland/3015-Martin-Luther-King-Junior-Way-94609/home/1840862
p279
aVhttps://www.redfin.com/CA/Oakland/730-29th-St-94609/unit-211/home/12343691
p280
aVhttps://www.redfin.com/CA/Oakland/3112-Martin-Luther-King-Junior-Way-94609/home/907925
p281
aVhttps://www.redfin.com/CA/Oakland/668-30th-St-94609/home/1710946
p282
aVhttps://www.redfin.com/CA/Oakland/699-31st-St-94609/home/1416376
p283
aVhttps://www.redfin.com/CA/Oakland/Martin-Luther-King-Junior-Way-94609/home/22715685
p284
aVhttps://www.redfin.com/CA/Oakland/3020-Martin-Luther-King-Junior-Way-94609/home/1187553
p285
aVhttps://www.redfin.com/CA/Oakland/3008-Martin-Luther-King-Junior-Way-94609/home/1679463
p286
aVhttps://www.redfin.com/CA/Oakland/2915-Martin-Luther-King-Junior-Way-94609/home/548997
p287
aVhttps://www.redfin.com/CA/Oakland/692-30th-St-94609/home/1352453
p288
aVhttps://www.redfin.com/CA/Oakland/730-29th-St-94609/unit-11C/home/22963723
p289
aVhttps://www.redfin.com/CA/Oakland/730-29th-St-94609/unit-8C/home/22963726
p290
aVhttps://www.redfin.com/CA/Oakland/730-29th-St-94609/unit-4C/home/22963729
p291
aVhttps://www.redfin.com/CA/Oakland/730-29th-St-94609/unit-1C/home/22963732
p292
aVhttps://www.redfin.com/CA/Oakland/700-29th-St-94609/home/1664683
p293
aVhttps://www.redfin.com/CA/Oakland/673-31st-St-94609/home/1698127
p294
aVhttps://www.redfin.com/CA/Oakland/3014-Martin-Luther-King-Junior-Way-94609/home/569798
p295
aVhttps://www.redfin.com/CA/Oakland/2916-Martin-Luther-King-Junior-Way-94609/home/1798733
p296
aVhttps://www.redfin.com/CA/Oakland/2910-Martin-Luther-King-Junior-Way-94609/home/864930
p297
aVhttps://www.redfin.com/CA/Oakland/699-30th-St-94609/home/1880794
p298
aVhttps://www.redfin.com/CA/Oakland/675-31st-St-94609/home/1094860
p299
aVhttps://www.redfin.com/CA/Oakland/624-31st-St-94609/home/996745
p300
aVhttps://www.redfin.com/CA/Oakland/2836-Martin-Luther-King-Junior-Way-94609/home/2013073
p301
aVhttps://www.redfin.com/CA/Oakland/689-30th-St-94609/unit-C/home/1523075
p302
aVhttps://www.redfin.com/CA/Oakland/3007-Martin-Luther-King-Junior-Way-94609/home/1605407
p303
assI6
(dp304
g231
I12
sg232
I01
sg233
Vhttps://www.redfin.com/zipcode/94609/filter/include=sold-all,viewport=37.81858:37.81747:-122.27125:-122.27278
p305
sg235
I01
sg236
(lp306
Vhttps://www.redfin.com/CA/Oakland/2833-Martin-Luther-King-Junior-Way-94609/home/1815722
p307
aVhttps://www.redfin.com/CA/Oakland/685-28th-St-94609/home/1868551
p308
aVhttps://www.redfin.com/CA/Oakland/668-28th-St-94609/home/525550
p309
aVhttps://www.redfin.com/CA/Oakland/673-28th-St-94609/home/907878
p310
aVhttps://www.redfin.com/CA/Oakland/669-28th-St-94609/home/1868555
p311
aVhttps://www.redfin.com/CA/Oakland/663-28th-St-94609/home/525541
p312
aVhttps://www.redfin.com/CA/Oakland/687-28th-St-94609/home/17188267
p313
aVhttps://www.redfin.com/CA/Oakland/674-28th-St-94609/home/1627250
p314
aVhttps://www.redfin.com/CA/Oakland/2827-Martin-Luther-King-Junior-Way-94609/home/1284631
p315
aVhttps://www.redfin.com/CA/Oakland/2823-Martin-Luther-King-Junior-Way-94609/home/942159
p316
aVhttps://www.redfin.com/CA/Oakland/682-28th-St-94609/home/2040027
p317
aVhttps://www.redfin.com/CA/Oakland/2727-Martin-Luther-King-Junior-Way-94612/home/22806485
p318
assI7
(dp319
g231
I22
sg232
I01
sg233
Vhttps://www.redfin.com/zipcode/94609/filter/include=sold-all,viewport=37.82256:37.82144:-122.2718:-122.27332
p320
sg235
I01
sg236
(lp321
Vhttps://www.redfin.com/CA/Oakland/707-Brockhurst-St-94609/home/569848
p322
aVhttps://www.redfin.com/CA/Oakland/701-32nd-St-94609/home/2016905
p323
aVhttps://www.redfin.com/CA/Oakland/3222-West-St-94608/home/708482
p324
aVhttps://www.redfin.com/CA/Oakland/729-32nd-St-94609/home/525693
p325
aVhttps://www.redfin.com/CA/Oakland/3218-West-St-94608/home/525699
p326
aVhttps://www.redfin.com/CA/Oakland/709-32nd-St-94609/home/22679598
p327
aVhttps://www.redfin.com/CA/Oakland/720-32nd-St-94609/home/2004740
p328
aVhttps://www.redfin.com/CA/Oakland/704-32nd-St-94609/home/1531629
p329
aVhttps://www.redfin.com/CA/Oakland/706-Brockhurst-St-94609/home/1664761
p330
aVhttps://www.redfin.com/CA/Oakland/705-32nd-St-94609/home/525694
p331
aVhttps://www.redfin.com/CA/Oakland/730-32nd-St-94609/home/1443858
p332
aVhttps://www.redfin.com/CA/Oakland/711-Brockhurst-St-94609/home/1854848
p333
aVhttps://www.redfin.com/CA/Oakland/697-32nd-St-94609/home/1969670
p334
aVhttps://www.redfin.com/CA/Oakland/3136-West-St-94608/home/1627303
p335
aVhttps://www.redfin.com/CA/Oakland/711-32nd-St-94609/home/1266872
p336
aVhttps://www.redfin.com/CA/Oakland/3208-West-St-94608/home/1562497
p337
aVhttps://www.redfin.com/CA/Oakland/703-Brockhurst-St-94609/home/1187575
p338
aVhttps://www.redfin.com/CA/Oakland/3138-West-St-94608/home/1647632
p339
aVhttps://www.redfin.com/CA/Oakland/717-Brockhurst-St-94609/home/912344
p340
aVhttps://www.redfin.com/CA/Oakland/700-32nd-St-94609/home/1945454
p341
aVhttps://www.redfin.com/CA/Oakland/708-32nd-St-94609/home/1700760
p342
assI8
(dp343
g231
I91
sg232
I01
sg233
Vhttps://www.redfin.com/zipcode/94609/filter/include=sold-all,viewport=37.82295:37.82072:-122.27002:-122.27306
p344
sg235
I01
sg236
(lp345
Vhttps://www.redfin.com/CA/Oakland/693-32nd-St-94609/home/525695
p346
aVhttps://www.redfin.com/CA/Oakland/3117-Martin-Luther-King-Junior-Way-94609/home/1832249
p347
aVhttps://www.redfin.com/CA/Oakland/707-Brockhurst-St-94609/home/569848
p348
aVhttps://www.redfin.com/CA/Oakland/696-31st-St-94609/home/1961768
p349
aVhttps://www.redfin.com/CA/Oakland/670-32nd-St-94609/home/1828873
p350
aVhttps://www.redfin.com/CA/Oakland/711-33rd-St-94609/home/525730
p351
aVhttps://www.redfin.com/CA/Oakland/734-31st-St-94609/home/1234128
p352
aVhttps://www.redfin.com/CA/Oakland/701-32nd-St-94609/home/2016905
p353
aVhttps://www.redfin.com/CA/Oakland/3118-West-St-94608/home/1868561
p354
aVhttps://www.redfin.com/CA/Oakland/3301-Martin-Luther-King-Junior-Way-94609/home/525743
p355
aVhttps://www.redfin.com/CA/Oakland/692-32nd-St-94609/home/525597
p356
aVhttps://www.redfin.com/CA/Oakland/3250-West-St-94608/home/1421196
p357
aVhttps://www.redfin.com/CA/Oakland/3222-West-St-94608/home/708482
p358
aVhttps://www.redfin.com/CA/Oakland/676-32nd-St-94609/home/1507727
p359
aVhttps://www.redfin.com/CA/Oakland/696-32nd-St-94609/home/688890
p360
aVhttps://www.redfin.com/CA/Oakland/688-31st-St-94609/home/1328258
p361
aVhttps://www.redfin.com/CA/Oakland/3257-Martin-Luther-King-Junior-Way-94609/home/525600
p362
aVhttps://www.redfin.com/CA/Oakland/3270-West-St-94608/home/525602
p363
aVhttps://www.redfin.com/CA/Oakland/685-33rd-St-94609/home/525603
p364
aVhttps://www.redfin.com/CA/Oakland/729-32nd-St-94609/home/525693
p365
aVhttps://www.redfin.com/CA/Oakland/3218-West-St-94608/home/525699
p366
aVhttps://www.redfin.com/CA/Oakland/697-33rd-St-94609/home/525731
p367
aVhttps://www.redfin.com/CA/Oakland/681-33rd-St-94609/home/525732
p368
aVhttps://www.redfin.com/CA/Oakland/673-33rd-St-94609/home/525733
p369
aVhttps://www.redfin.com/CA/Oakland/663-33rd-St-94609/home/525734
p370
aVhttps://www.redfin.com/CA/Oakland/681-32nd-St-94609/home/1410739
p371
aVhttps://www.redfin.com/CA/Oakland/672-32nd-St-94609/home/1935785
p372
aVhttps://www.redfin.com/CA/Oakland/703-33rd-St-94609/home/1935790
p373
aVhttps://www.redfin.com/CA/Oakland/669-33rd-St-94609/home/658638
p374
aVhttps://www.redfin.com/CA/Oakland/676-31st-St-94609/home/1494496
p375
aVhttps://www.redfin.com/CA/Oakland/709-32nd-St-94609/home/22679598
p376
aVhttps://www.redfin.com/CA/Oakland/720-32nd-St-94609/home/2004740
p377
aVhttps://www.redfin.com/CA/Oakland/3105-Martin-Luther-King-Junior-Way-94609/home/1431378
p378
aVhttps://www.redfin.com/CA/Oakland/3109-Martin-Luther-King-Junior-Way-94609/home/1726314
p379
aVhttps://www.redfin.com/CA/Oakland/726-31st-St-94609/home/1842031
p380
aVhttps://www.redfin.com/CA/Oakland/704-32nd-St-94609/home/1531629
p381
aVhttps://www.redfin.com/CA/Oakland/3195-Martin-Luther-King-Junior-Way-94609/home/647698
p382
aVhttps://www.redfin.com/CA/Oakland/706-Brockhurst-St-94609/home/1664761
p383
aVhttps://www.redfin.com/CA/Oakland/692-31st-St-94609/home/1698132
p384
aVhttps://www.redfin.com/CA/Oakland/693-Brockhurst-St-94609/home/2013077
p385
aVhttps://www.redfin.com/CA/Oakland/655-32nd-St-94609/home/1111964
p386
aVhttps://www.redfin.com/CA/Oakland/677-33rd-St-94609/home/1605666
p387
aVhttps://www.redfin.com/CA/Oakland/702-31st-St-94609/home/1901670
p388
aVhttps://www.redfin.com/CA/Oakland/694-Brockhurst-St-94609/home/1328262
p389
aVhttps://www.redfin.com/CA/Oakland/689-32nd-St-94609/home/525587
p390
aVhttps://www.redfin.com/CA/Oakland/3204-Martin-Luther-King-Junior-Way-94609/home/525590
p391
aVhttps://www.redfin.com/CA/Oakland/3203-Martin-Luther-King-Junior-Way-94609/home/525595
p392
aVhttps://www.redfin.com/CA/Oakland/683-Brockhurst-St-94609/home/525599
p393
aVhttps://www.redfin.com/CA/Oakland/730-31st-St-94609/home/525692
p394
aVhttps://www.redfin.com/CA/Oakland/705-32nd-St-94609/home/525694
p395
aVhttps://www.redfin.com/CA/Oakland/684-31st-St-94609/home/1410732
p396
aVhttps://www.redfin.com/CA/Oakland/730-32nd-St-94609/home/1443858
p397
aVhttps://www.redfin.com/CA/Oakland/697-Brockhurst-St-94609/home/1870992
p398
aVhttps://www.redfin.com/CA/Oakland/690-Brockhurst-St-94609/home/658620
p399
aVhttps://www.redfin.com/CA/Oakland/718-Brockhurst-St-94609/home/658630
p400
aVhttps://www.redfin.com/CA/Oakland/711-Brockhurst-St-94609/home/1854848
p401
aVhttps://www.redfin.com/CA/Oakland/708-31st-St-94609/home/1494503
p402
aVhttps://www.redfin.com/CA/Oakland/3132-Martin-Luther-King-Junior-Way-94609/home/1494507
p403
aVhttps://www.redfin.com/CA/Oakland/697-32nd-St-94609/home/1969670
p404
aVhttps://www.redfin.com/CA/Oakland/3136-West-St-94608/home/1627303
p405
aVhttps://www.redfin.com/CA/Oakland/711-32nd-St-94609/home/1266872
p406
aVhttps://www.redfin.com/CA/Oakland/3142-Martin-Luther-King-Junior-Way-94609/home/1266876
p407
aVhttps://www.redfin.com/CA/Oakland/3120-Martin-Luther-King-Junior-Way-94609/home/2004737
p408
aVhttps://www.redfin.com/CA/Oakland/664-31st-St-94609/home/1464171
p409
aVhttps://www.redfin.com/CA/Oakland/3208-West-St-94608/home/1562497
p410
aVhttps://www.redfin.com/CA/Oakland/3251-Martin-Luther-King-Junior-Way-94609/home/1284417
p411
aVhttps://www.redfin.com/CA/Oakland/3112-Martin-Luther-King-Junior-Way-94609/home/907925
p412
aVhttps://www.redfin.com/CA/Oakland/702-Brockhurst-St-94609/home/1711003
p413
aVhttps://www.redfin.com/CA/Oakland/714-31st-St-94609/home/1039557
p414
aVhttps://www.redfin.com/CA/Oakland/703-Brockhurst-St-94609/home/1187575
p415
aVhttps://www.redfin.com/CA/Oakland/3175-Martin-Luther-King-Junior-Way-94609/home/1974018
p416
aVhttps://www.redfin.com/CA/Oakland/684-Brockhurst-St-94609/home/942189
p417
aVhttps://www.redfin.com/CA/Oakland/3138-West-St-94608/home/1647632
p418
aVhttps://www.redfin.com/CA/Oakland/722-31st-St-94609/home/1909860
p419
aVhttps://www.redfin.com/CA/Oakland/691-33rd-St-94609/home/1828879
p420
aVhttps://www.redfin.com/CA/Oakland/666-32nd-St-94609/home/22686320
p421
aVhttps://www.redfin.com/CA/Oakland/717-Brockhurst-St-94609/home/912344
p422
aVhttps://www.redfin.com/CA/Oakland/3185-Martin-Luther-King-Junior-Way-94609/home/2010824
p423
aVhttps://www.redfin.com/CA/Oakland/3123-Martin-Luther-King-Junior-Way-94609/home/1945449
p424
aVhttps://www.redfin.com/CA/Oakland/700-32nd-St-94609/home/1945454
p425
aVhttps://www.redfin.com/CA/Oakland/680-31st-St-94609/home/1929178
p426
aVhttps://www.redfin.com/CA/Oakland/698-Brockhurst-St-94609/home/1929183
p427
aVhttps://www.redfin.com/CA/Oakland/686-32nd-St-94609/home/1913117
p428
aVhttps://www.redfin.com/CA/Oakland/708-32nd-St-94609/home/1700760
p429
aVhttps://www.redfin.com/CA/Oakland/721-31st-St-94609/home/1832244
p430
aVhttps://www.redfin.com/CA/Oakland/722-Brockhurst-St-94609/home/1963635
p431
aVhttps://www.redfin.com/CA/Oakland/3262-West-St-94608/home/1980942
p432
aVhttps://www.redfin.com/CA/Oakland/601-32nd-St-94609/home/784949
p433
aVhttps://www.redfin.com/CA/Oakland/670-Brockhurst-St-94609/home/1669808
p434
aVhttps://www.redfin.com/CA/Oakland/714-Brockhurst-St-94609/home/999341
p435
assI9
(dp436
g231
I26
sg232
I01
sg233
Vhttps://www.redfin.com/zipcode/94609/filter/include=sold-all,viewport=37.82334:37.82223:-122.27142:-122.27294
p437
sg235
I01
sg236
(lp438
Vhttps://www.redfin.com/CA/Oakland/702-33rd-St-94609/home/1531641
p439
aVhttps://www.redfin.com/CA/Oakland/711-33rd-St-94609/home/525730
p440
aVhttps://www.redfin.com/CA/Oakland/3250-West-St-94608/home/1421196
p441
aVhttps://www.redfin.com/CA/Oakland/3222-West-St-94608/home/708482
p442
aVhttps://www.redfin.com/CA/Oakland/694-33rd-St-94609/home/1687630
p443
aVhttps://www.redfin.com/CA/Oakland/3270-West-St-94608/home/525602
p444
aVhttps://www.redfin.com/CA/Oakland/3218-West-St-94608/home/525699
p445
aVhttps://www.redfin.com/CA/Oakland/697-33rd-St-94609/home/525731
p446
aVhttps://www.redfin.com/CA/Oakland/703-33rd-St-94609/home/1935790
p447
aVhttps://www.redfin.com/CA/Oakland/706-Brockhurst-St-94609/home/1664761
p448
aVhttps://www.redfin.com/CA/Oakland/694-Brockhurst-St-94609/home/1328262
p449
aVhttps://www.redfin.com/CA/Oakland/690-Brockhurst-St-94609/home/658620
p450
aVhttps://www.redfin.com/CA/Oakland/718-Brockhurst-St-94609/home/658630
p451
aVhttps://www.redfin.com/CA/Oakland/706-33rd-St-94609/home/658656
p452
aVhttps://www.redfin.com/CA/Oakland/698-33rd-St-94609/home/1854857
p453
aVhttps://www.redfin.com/CA/Oakland/3302-West-St-94608/home/1969684
p454
aVhttps://www.redfin.com/CA/Oakland/696-33rd-St-94609/home/1431383
p455
aVhttps://www.redfin.com/CA/Oakland/702-Brockhurst-St-94609/home/1711003
p456
aVhttps://www.redfin.com/CA/Oakland/3278-West-St-94608/home/1515329
p457
aVhttps://www.redfin.com/CA/Oakland/691-33rd-St-94609/home/1828879
p458
aVhttps://www.redfin.com/CA/Oakland/717-Brockhurst-St-94609/home/912344
p459
aVhttps://www.redfin.com/CA/Oakland/698-Brockhurst-St-94609/home/1929183
p460
aVhttps://www.redfin.com/CA/Oakland/722-Brockhurst-St-94609/home/1963635
p461
aVhttps://www.redfin.com/CA/Oakland/3262-West-St-94608/home/1980942
p462
aVhttps://www.redfin.com/CA/Oakland/714-Brockhurst-St-94609/home/999341
p463
assI10
(dp464
g231
I22
sg232
I01
sg233
Vhttps://www.redfin.com/zipcode/94609/filter/include=sold-all,viewport=37.82395:37.82284:-122.27122:-122.27274
p465
sg235
I01
sg236
(lp466
Vhttps://www.redfin.com/CA/Oakland/734-34th-St-94609/home/108306625
p467
aVhttps://www.redfin.com/CA/Oakland/702-33rd-St-94609/home/1531641
p468
aVhttps://www.redfin.com/CA/Oakland/3306-West-St-94608/home/525618
p469
aVhttps://www.redfin.com/CA/Oakland/711-33rd-St-94609/home/525730
p470
aVhttps://www.redfin.com/CA/Oakland/730-34th-St-94609/home/110033523
p471
aVhttps://www.redfin.com/CA/Oakland/734-34th-St-94609/home/57180121
p472
aVhttps://www.redfin.com/CA/Oakland/694-33rd-St-94609/home/1687630
p473
aVhttps://www.redfin.com/CA/Oakland/3270-West-St-94608/home/525602
p474
aVhttps://www.redfin.com/CA/Oakland/703-33rd-St-94609/home/1935790
p475
aVhttps://www.redfin.com/CA/Oakland/686-33rd-St-94609/home/1255421
p476
aVhttps://www.redfin.com/CA/Oakland/737-34th-St-94609/home/1980947
p477
aVhttps://www.redfin.com/CA/Oakland/3310-West-St-94608/home/1113220
p478
aVhttps://www.redfin.com/CA/Oakland/730-34th-St-94609/home/57180165
p479
aVhttps://www.redfin.com/CA/Oakland/755-34th-St-94609/home/1951371
p480
aVhttps://www.redfin.com/CA/Oakland/706-33rd-St-94609/home/658656
p481
aVhttps://www.redfin.com/CA/Oakland/698-33rd-St-94609/home/1854857
p482
aVhttps://www.redfin.com/CA/Oakland/3302-West-St-94608/home/1969684
p483
aVhttps://www.redfin.com/CA/Oakland/696-33rd-St-94609/home/1431383
p484
aVhttps://www.redfin.com/CA/Oakland/3322-West-St-94608/home/727242
p485
aVhttps://www.redfin.com/CA/Oakland/3278-West-St-94608/home/1515329
p486
aVhttps://www.redfin.com/CA/Oakland/721-34th-St-94609/home/1828882
p487
aVhttps://www.redfin.com/CA/Oakland/705-34th-St-94609/home/864940
p488
assI11
(dp489
g231
I32
sg232
I01
sg233
Vhttps://www.redfin.com/zipcode/94609/filter/include=sold-all,viewport=37.82348:37.82236:-122.27044:-122.27196
p490
sg235
I01
sg236
(lp491
Vhttps://www.redfin.com/CA/Oakland/702-33rd-St-94609/home/1531641
p492
aVhttps://www.redfin.com/CA/Oakland/3301-Martin-Luther-King-Junior-Way-94609/home/525743
p493
aVhttps://www.redfin.com/CA/Oakland/689-34th-St-94609/home/1830484
p494
aVhttps://www.redfin.com/CA/Oakland/694-33rd-St-94609/home/1687630
p495
aVhttps://www.redfin.com/CA/Oakland/685-33rd-St-94609/home/525603
p496
aVhttps://www.redfin.com/CA/Oakland/697-33rd-St-94609/home/525731
p497
aVhttps://www.redfin.com/CA/Oakland/681-33rd-St-94609/home/525732
p498
aVhttps://www.redfin.com/CA/Oakland/673-33rd-St-94609/home/525733
p499
aVhttps://www.redfin.com/CA/Oakland/663-33rd-St-94609/home/525734
p500
aVhttps://www.redfin.com/CA/Oakland/703-33rd-St-94609/home/1935790
p501
aVhttps://www.redfin.com/CA/Oakland/669-33rd-St-94609/home/658638
p502
aVhttps://www.redfin.com/CA/Oakland/3319-Martin-Luther-King-Junior-Way-94609/home/629010
p503
aVhttps://www.redfin.com/CA/Oakland/706-Brockhurst-St-94609/home/1664761
p504
aVhttps://www.redfin.com/CA/Oakland/666-33rd-St-94609/home/1288130
p505
aVhttps://www.redfin.com/CA/Oakland/686-33rd-St-94609/home/1255421
p506
aVhttps://www.redfin.com/CA/Oakland/682-33rd-St-94609/home/1061425
p507
aVhttps://www.redfin.com/CA/Oakland/677-33rd-St-94609/home/1605666
p508
aVhttps://www.redfin.com/CA/Oakland/694-Brockhurst-St-94609/home/1328262
p509
aVhttps://www.redfin.com/CA/Oakland/685-34th-St-94609/home/525746
p510
aVhttps://www.redfin.com/CA/Oakland/690-Brockhurst-St-94609/home/658620
p511
aVhttps://www.redfin.com/CA/Oakland/706-33rd-St-94609/home/658656
p512
aVhttps://www.redfin.com/CA/Oakland/668-33rd-St-94609/home/1854853
p513
aVhttps://www.redfin.com/CA/Oakland/698-33rd-St-94609/home/1854857
p514
aVhttps://www.redfin.com/CA/Oakland/678-33rd-St-94609/home/1741443
p515
aVhttps://www.redfin.com/CA/Oakland/696-33rd-St-94609/home/1431383
p516
aVhttps://www.redfin.com/CA/Oakland/702-Brockhurst-St-94609/home/1711003
p517
aVhttps://www.redfin.com/CA/Oakland/684-Brockhurst-St-94609/home/942189
p518
aVhttps://www.redfin.com/CA/Oakland/691-33rd-St-94609/home/1828879
p519
aVhttps://www.redfin.com/CA/Oakland/698-Brockhurst-St-94609/home/1929183
p520
aVhttps://www.redfin.com/CA/Oakland/705-34th-St-94609/home/864940
p521
aVhttps://www.redfin.com/CA/Oakland/670-Brockhurst-St-94609/home/1669808
p522
assI12
(dp523
g231
I419
sg232
I01
sg233
Vhttps://www.redfin.com/zipcode/94609/filter/include=sold-all,viewport=37.82655:37.81765:-122.26522:-122.27738#fsd
p524
sg235
I01
ssI13
(dp525
g231
I19
sg232
I01
sg233
Vhttps://www.redfin.com/zipcode/94609/filter/include=sold-all,viewport=37.82461:37.8235:-122.2705:-122.27202
p526
sg235
I01
sg236
(lp527
Vhttps://www.redfin.com/CA/Oakland/734-34th-St-94609/home/108306625
p528
aVhttps://www.redfin.com/CA/Oakland/730-34th-St-94609/home/110033523
p529
aVhttps://www.redfin.com/CA/Oakland/734-34th-St-94609/home/57180121
p530
aVhttps://www.redfin.com/CA/Oakland/675-35th-St-94609/home/525637
p531
aVhttps://www.redfin.com/CA/Oakland/732-34th-St-94609/home/57180122
p532
aVhttps://www.redfin.com/CA/Oakland/730-34th-St-94609/home/57180165
p533
aVhttps://www.redfin.com/CA/Oakland/697-35th-St-94609/home/1605686
p534
aVhttps://www.redfin.com/CA/Oakland/682-34th-St-94609/home/525630
p535
aVhttps://www.redfin.com/CA/Oakland/703-35th-St-94609/home/525635
p536
aVhttps://www.redfin.com/CA/Oakland/683-35th-St-94609/home/525636
p537
aVhttps://www.redfin.com/CA/Oakland/724-34th-St-94609/home/525753
p538
aVhttps://www.redfin.com/CA/Oakland/706-34th-St-94609/home/2016910
p539
aVhttps://www.redfin.com/CA/Oakland/667-35th-St-94609/home/1871005
p540
aVhttps://www.redfin.com/CA/Oakland/719-35th-St-94609/home/1969689
p541
aVhttps://www.redfin.com/CA/Oakland/738-34th-St-94609/home/1760059
p542
aVhttps://www.redfin.com/CA/Oakland/672-34th-St-94609/home/1992162
p543
aVhttps://www.redfin.com/CA/Oakland/721-34th-St-94609/home/1828882
p544
aVhttps://www.redfin.com/CA/Oakland/687-35th-St-94609/home/1421206
p545
aVhttps://www.redfin.com/CA/Oakland/692-34th-St-94609/home/999364
p546
assI14
(dp547
g231
I64
sg232
I01
sg233
Vhttps://www.redfin.com/zipcode/94609/filter/include=sold-all,viewport=37.82463:37.8224:-122.26885:-122.27189
p548
sg235
I01
sg236
(lp549
Vhttps://www.redfin.com/CA/Oakland/734-34th-St-94609/home/108306625
p550
aVhttps://www.redfin.com/CA/Oakland/702-33rd-St-94609/home/1531641
p551
aVhttps://www.redfin.com/CA/Oakland/3435-Martin-Luther-King-Junior-Way-94609/home/1605443
p552
aVhttps://www.redfin.com/CA/Oakland/626-33rd-St-94609/home/1832251
p553
aVhttps://www.redfin.com/CA/Oakland/730-34th-St-94609/home/110033523
p554
aVhttps://www.redfin.com/CA/Oakland/734-34th-St-94609/home/57180121
p555
aVhttps://www.redfin.com/CA/Oakland/3301-Martin-Luther-King-Junior-Way-94609/home/525743
p556
aVhttps://www.redfin.com/CA/Oakland/689-34th-St-94609/home/1830484
p557
aVhttps://www.redfin.com/CA/Oakland/694-33rd-St-94609/home/1687630
p558
aVhttps://www.redfin.com/CA/Oakland/3331-Martin-Luther-King-Junior-Way-94609/home/1754146
p559
aVhttps://www.redfin.com/CA/Oakland/3300-Martin-Luther-King-Junior-Way-94609/home/1328275
p560
aVhttps://www.redfin.com/CA/Oakland/685-33rd-St-94609/home/525603
p561
aVhttps://www.redfin.com/CA/Oakland/695-34th-St-94609/home/525619
p562
aVhttps://www.redfin.com/CA/Oakland/675-35th-St-94609/home/525637
p563
aVhttps://www.redfin.com/CA/Oakland/697-33rd-St-94609/home/525731
p564
aVhttps://www.redfin.com/CA/Oakland/681-33rd-St-94609/home/525732
p565
aVhttps://www.redfin.com/CA/Oakland/673-33rd-St-94609/home/525733
p566
aVhttps://www.redfin.com/CA/Oakland/663-33rd-St-94609/home/525734
p567
aVhttps://www.redfin.com/CA/Oakland/703-33rd-St-94609/home/1935790
p568
aVhttps://www.redfin.com/CA/Oakland/669-33rd-St-94609/home/658638
p569
aVhttps://www.redfin.com/CA/Oakland/3319-Martin-Luther-King-Junior-Way-94609/home/629010
p570
aVhttps://www.redfin.com/CA/Oakland/3310-Martin-Luther-King-Junior-Way-94609/home/108977636
p571
aVhttps://www.redfin.com/CA/Oakland/706-Brockhurst-St-94609/home/1664761
p572
aVhttps://www.redfin.com/CA/Oakland/666-33rd-St-94609/home/1288130
p573
aVhttps://www.redfin.com/CA/Oakland/686-33rd-St-94609/home/1255421
p574
aVhttps://www.redfin.com/CA/Oakland/635-34th-St-94609/home/1585472
p575
aVhttps://www.redfin.com/CA/Oakland/682-33rd-St-94609/home/1061425
p576
aVhttps://www.redfin.com/CA/Oakland/732-34th-St-94609/home/57180122
p577
aVhttps://www.redfin.com/CA/Oakland/730-34th-St-94609/home/57180165
p578
aVhttps://www.redfin.com/CA/Oakland/677-33rd-St-94609/home/1605666
p579
aVhttps://www.redfin.com/CA/Oakland/697-35th-St-94609/home/1605686
p580
aVhttps://www.redfin.com/CA/Oakland/694-Brockhurst-St-94609/home/1328262
p581
aVhttps://www.redfin.com/CA/Oakland/3419-Martin-Luther-King-Junior-Way-94609/home/1328282
p582
aVhttps://www.redfin.com/CA/Oakland/3336-Martin-Luther-King-Junior-Way-94609/home/525624
p583
aVhttps://www.redfin.com/CA/Oakland/682-34th-St-94609/home/525630
p584
aVhttps://www.redfin.com/CA/Oakland/703-35th-St-94609/home/525635
p585
aVhttps://www.redfin.com/CA/Oakland/683-35th-St-94609/home/525636
p586
aVhttps://www.redfin.com/CA/Oakland/685-34th-St-94609/home/525746
p587
aVhttps://www.redfin.com/CA/Oakland/3322-Martin-Luther-King-Junior-Way-94609/home/525748
p588
aVhttps://www.redfin.com/CA/Oakland/668-34th-St-94609/home/525752
p589
aVhttps://www.redfin.com/CA/Oakland/724-34th-St-94609/home/525753
p590
aVhttps://www.redfin.com/CA/Oakland/706-34th-St-94609/home/2016910
p591
aVhttps://www.redfin.com/CA/Oakland/3258-Martin-Luther-King-Junior-Way-94609/home/1443854
p592
aVhttps://www.redfin.com/CA/Oakland/667-35th-St-94609/home/1871005
p593
aVhttps://www.redfin.com/CA/Oakland/690-Brockhurst-St-94609/home/658620
p594
aVhttps://www.redfin.com/CA/Oakland/706-33rd-St-94609/home/658656
p595
aVhttps://www.redfin.com/CA/Oakland/668-33rd-St-94609/home/1854853
p596
aVhttps://www.redfin.com/CA/Oakland/698-33rd-St-94609/home/1854857
p597
aVhttps://www.redfin.com/CA/Oakland/719-35th-St-94609/home/1969689
p598
aVhttps://www.redfin.com/CA/Oakland/678-33rd-St-94609/home/1741443
p599
aVhttps://www.redfin.com/CA/Oakland/696-33rd-St-94609/home/1431383
p600
aVhttps://www.redfin.com/CA/Oakland/702-Brockhurst-St-94609/home/1711003
p601
aVhttps://www.redfin.com/CA/Oakland/672-34th-St-94609/home/1992162
p602
aVhttps://www.redfin.com/CA/Oakland/691-33rd-St-94609/home/1828879
p603
aVhttps://www.redfin.com/CA/Oakland/721-34th-St-94609/home/1828882
p604
aVhttps://www.redfin.com/CA/Oakland/3417-Martin-Luther-King-Junior-Way-94609/home/878949
p605
aVhttps://www.redfin.com/CA/Oakland/3327-Martin-Luther-King-Junior-Way-94609/home/1961774
p606
aVhttps://www.redfin.com/CA/Oakland/687-35th-St-94609/home/1421206
p607
aVhttps://www.redfin.com/CA/Oakland/698-Brockhurst-St-94609/home/1929183
p608
aVhttps://www.redfin.com/CA/Oakland/705-34th-St-94609/home/864940
p609
aVhttps://www.redfin.com/CA/Oakland/625-34th-St-94609/home/1799778
p610
aVhttps://www.redfin.com/CA/Oakland/3312-Martin-Luther-King-Junior-Way-94609/home/999356
p611
aVhttps://www.redfin.com/CA/Oakland/692-34th-St-94609/home/999364
p612
assI15
(dp613
g231
I20
sg232
I01
sg233
Vhttps://www.redfin.com/zipcode/94609/filter/include=sold-all,viewport=37.82325:37.82214:-122.26931:-122.27083
p614
sg235
I01
sg236
(lp615
Vhttps://www.redfin.com/CA/Oakland/626-33rd-St-94609/home/1832251
p616
aVhttps://www.redfin.com/CA/Oakland/3301-Martin-Luther-King-Junior-Way-94609/home/525743
p617
aVhttps://www.redfin.com/CA/Oakland/3300-Martin-Luther-King-Junior-Way-94609/home/1328275
p618
aVhttps://www.redfin.com/CA/Oakland/3257-Martin-Luther-King-Junior-Way-94609/home/525600
p619
aVhttps://www.redfin.com/CA/Oakland/3246-Martin-Luther-King-Junior-Way-94609/home/1726318
p620
aVhttps://www.redfin.com/CA/Oakland/3319-Martin-Luther-King-Junior-Way-94609/home/629010
p621
aVhttps://www.redfin.com/CA/Oakland/3310-Martin-Luther-King-Junior-Way-94609/home/108977636
p622
aVhttps://www.redfin.com/CA/Oakland/666-33rd-St-94609/home/1288130
p623
aVhttps://www.redfin.com/CA/Oakland/635-34th-St-94609/home/1585472
p624
aVhttps://www.redfin.com/CA/Oakland/3242-Martin-Luther-King-Junior-Way-94609/home/1507717
p625
aVhttps://www.redfin.com/CA/Oakland/3250-Martin-Luther-King-Junior-Way-94609/home/525591
p626
aVhttps://www.redfin.com/CA/Oakland/3336-Martin-Luther-King-Junior-Way-94609/home/525624
p627
aVhttps://www.redfin.com/CA/Oakland/619-33rd-St-94609/home/525697
p628
aVhttps://www.redfin.com/CA/Oakland/3322-Martin-Luther-King-Junior-Way-94609/home/525748
p629
aVhttps://www.redfin.com/CA/Oakland/3258-Martin-Luther-King-Junior-Way-94609/home/1443854
p630
aVhttps://www.redfin.com/CA/Oakland/3251-Martin-Luther-King-Junior-Way-94609/home/1284417
p631
aVhttps://www.redfin.com/CA/Oakland/3327-Martin-Luther-King-Junior-Way-94609/home/1961774
p632
aVhttps://www.redfin.com/CA/Oakland/625-34th-St-94609/home/1799778
p633
aVhttps://www.redfin.com/CA/Oakland/3312-Martin-Luther-King-Junior-Way-94609/home/999356
p634
assI16
(dp635
g231
I58
sg232
I01
sg233
Vhttps://www.redfin.com/zipcode/94609/filter/include=sold-all,viewport=37.82229:37.82006:-122.26909:-122.27213
p636
sg235
I01
sg236
(lp637
Vhttps://www.redfin.com/CA/Oakland/693-32nd-St-94609/home/525695
p638
aVhttps://www.redfin.com/CA/Oakland/3117-Martin-Luther-King-Junior-Way-94609/home/1832249
p639
aVhttps://www.redfin.com/CA/Oakland/707-Brockhurst-St-94609/home/569848
p640
aVhttps://www.redfin.com/CA/Oakland/696-31st-St-94609/home/1961768
p641
aVhttps://www.redfin.com/CA/Oakland/670-32nd-St-94609/home/1828873
p642
aVhttps://www.redfin.com/CA/Oakland/3030-Martin-Luther-King-Junior-Way-94609/home/525580
p643
aVhttps://www.redfin.com/CA/Oakland/701-32nd-St-94609/home/2016905
p644
aVhttps://www.redfin.com/CA/Oakland/692-32nd-St-94609/home/525597
p645
aVhttps://www.redfin.com/CA/Oakland/676-32nd-St-94609/home/1507727
p646
aVhttps://www.redfin.com/CA/Oakland/696-32nd-St-94609/home/688890
p647
aVhttps://www.redfin.com/CA/Oakland/688-31st-St-94609/home/1328258
p648
aVhttps://www.redfin.com/CA/Oakland/3257-Martin-Luther-King-Junior-Way-94609/home/525600
p649
aVhttps://www.redfin.com/CA/Oakland/681-32nd-St-94609/home/1410739
p650
aVhttps://www.redfin.com/CA/Oakland/672-32nd-St-94609/home/1935785
p651
aVhttps://www.redfin.com/CA/Oakland/676-31st-St-94609/home/1494496
p652
aVhttps://www.redfin.com/CA/Oakland/679-31st-St-94609/home/676383
p653
aVhttps://www.redfin.com/CA/Oakland/3105-Martin-Luther-King-Junior-Way-94609/home/1431378
p654
aVhttps://www.redfin.com/CA/Oakland/3109-Martin-Luther-King-Junior-Way-94609/home/1726314
p655
aVhttps://www.redfin.com/CA/Oakland/3246-Martin-Luther-King-Junior-Way-94609/home/1726318
p656
aVhttps://www.redfin.com/CA/Oakland/704-32nd-St-94609/home/1531629
p657
aVhttps://www.redfin.com/CA/Oakland/3195-Martin-Luther-King-Junior-Way-94609/home/647698
p658
aVhttps://www.redfin.com/CA/Oakland/692-31st-St-94609/home/1698132
p659
aVhttps://www.redfin.com/CA/Oakland/661-31st-St-94609/home/1797375
p660
aVhttps://www.redfin.com/CA/Oakland/693-Brockhurst-St-94609/home/2013077
p661
aVhttps://www.redfin.com/CA/Oakland/655-32nd-St-94609/home/1111964
p662
aVhttps://www.redfin.com/CA/Oakland/3034-Martin-Luther-King-Junior-Way-94609/home/999323
p663
aVhttps://www.redfin.com/CA/Oakland/3242-Martin-Luther-King-Junior-Way-94609/home/1507717
p664
aVhttps://www.redfin.com/CA/Oakland/689-32nd-St-94609/home/525587
p665
aVhttps://www.redfin.com/CA/Oakland/3204-Martin-Luther-King-Junior-Way-94609/home/525590
p666
aVhttps://www.redfin.com/CA/Oakland/3203-Martin-Luther-King-Junior-Way-94609/home/525595
p667
aVhttps://www.redfin.com/CA/Oakland/683-Brockhurst-St-94609/home/525599
p668
aVhttps://www.redfin.com/CA/Oakland/705-32nd-St-94609/home/525694
p669
aVhttps://www.redfin.com/CA/Oakland/619-33rd-St-94609/home/525697
p670
aVhttps://www.redfin.com/CA/Oakland/684-31st-St-94609/home/1410732
p671
aVhttps://www.redfin.com/CA/Oakland/697-Brockhurst-St-94609/home/1870992
p672
aVhttps://www.redfin.com/CA/Oakland/711-Brockhurst-St-94609/home/1854848
p673
aVhttps://www.redfin.com/CA/Oakland/3132-Martin-Luther-King-Junior-Way-94609/home/1494507
p674
aVhttps://www.redfin.com/CA/Oakland/600-32nd-St-94609/home/1494510
p675
aVhttps://www.redfin.com/CA/Oakland/697-32nd-St-94609/home/1969670
p676
aVhttps://www.redfin.com/CA/Oakland/3142-Martin-Luther-King-Junior-Way-94609/home/1266876
p677
aVhttps://www.redfin.com/CA/Oakland/3015-Martin-Luther-King-Junior-Way-94609/home/1840862
p678
aVhttps://www.redfin.com/CA/Oakland/3120-Martin-Luther-King-Junior-Way-94609/home/2004737
p679
aVhttps://www.redfin.com/CA/Oakland/664-31st-St-94609/home/1464171
p680
aVhttps://www.redfin.com/CA/Oakland/3251-Martin-Luther-King-Junior-Way-94609/home/1284417
p681
aVhttps://www.redfin.com/CA/Oakland/3112-Martin-Luther-King-Junior-Way-94609/home/907925
p682
aVhttps://www.redfin.com/CA/Oakland/703-Brockhurst-St-94609/home/1187575
p683
aVhttps://www.redfin.com/CA/Oakland/3175-Martin-Luther-King-Junior-Way-94609/home/1974018
p684
aVhttps://www.redfin.com/CA/Oakland/692-30th-St-94609/home/1352453
p685
aVhttps://www.redfin.com/CA/Oakland/673-31st-St-94609/home/1698127
p686
aVhttps://www.redfin.com/CA/Oakland/666-32nd-St-94609/home/22686320
p687
aVhttps://www.redfin.com/CA/Oakland/3185-Martin-Luther-King-Junior-Way-94609/home/2010824
p688
aVhttps://www.redfin.com/CA/Oakland/3123-Martin-Luther-King-Junior-Way-94609/home/1945449
p689
aVhttps://www.redfin.com/CA/Oakland/700-32nd-St-94609/home/1945454
p690
aVhttps://www.redfin.com/CA/Oakland/680-31st-St-94609/home/1929178
p691
aVhttps://www.redfin.com/CA/Oakland/686-32nd-St-94609/home/1913117
p692
aVhttps://www.redfin.com/CA/Oakland/675-31st-St-94609/home/1094860
p693
aVhttps://www.redfin.com/CA/Oakland/624-31st-St-94609/home/996745
p694
aVhttps://www.redfin.com/CA/Oakland/601-32nd-St-94609/home/784949
p695
assI17
(dp696
g231
I16
sg232
I01
sg233
Vhttps://www.redfin.com/zipcode/94609/filter/include=sold-all,viewport=37.8188:37.81769:-122.26785:-122.26937
p697
sg235
I01
sg236
(lp698
Vhttps://www.redfin.com/CA/Oakland/528-28th-St-94609/home/1605640
p699
aVhttps://www.redfin.com/CA/Oakland/564-29th-St-94609/home/105420686
p700
aVhttps://www.redfin.com/CA/Oakland/566-29th-St-94609/home/105420698
p701
aVhttps://www.redfin.com/CA/Oakland/562-29th-St-94609/home/105420672
p702
aVhttps://www.redfin.com/CA/Oakland/535-29th-St-94609/home/17186413
p703
aVhttps://www.redfin.com/CA/Oakland/533-29th-St-94609/home/17186347
p704
aVhttps://www.redfin.com/CA/Oakland/531-29th-St-94609/home/17186301
p705
aVhttps://www.redfin.com/CA/Oakland/537-29th-St-94609/home/17186557
p706
aVhttps://www.redfin.com/CA/Oakland/549-29th-St-94609/home/28545203
p707
aVhttps://www.redfin.com/CA/Oakland/545-29th-St-94609/home/525552
p708
aVhttps://www.redfin.com/CA/Oakland/514-28th-St-94609/home/525573
p709
aVhttps://www.redfin.com/CA/Oakland/518-28th-St-94609/home/1627269
p710
aVhttps://www.redfin.com/CA/Oakland/556-29th-St-94609/home/1627281
p711
aVhttps://www.redfin.com/CA/Oakland/2935-Telegraph-Ave-94609/home/28696942
p712
aVhttps://www.redfin.com/CA/Oakland/553-29th-St-94609/home/1352439
p713
aVhttps://www.redfin.com/CA/Oakland/544-28th-St-94609/home/1455090
p714
assI18
(dp715
g231
I14
sg232
I01
sg233
Vhttps://www.redfin.com/zipcode/94609/filter/include=sold-all,viewport=37.81957:37.81902:-122.2681:-122.26886
p716
sg235
I01
sg236
(lp717
Vhttps://www.redfin.com/CA/Oakland/546-30th-St-94609/unit-4/home/105426645
p718
aVhttps://www.redfin.com/CA/Oakland/546-30th-St-94609/unit-3/home/40079112
p719
aVhttps://www.redfin.com/CA/Oakland/556-30th-St-94609/unit-A/home/525558
p720
aVhttps://www.redfin.com/CA/Oakland/546-30th-St-94609/unit-2/home/40079111
p721
aVhttps://www.redfin.com/CA/Oakland/552-30th-St-94609/home/1830462
p722
aVhttps://www.redfin.com/CA/Oakland/546-30th-St-94609/unit-1/home/28963850
p723
aVhttps://www.redfin.com/CA/Oakland/539-30th-St-94609/home/525576
p724
aVhttps://www.redfin.com/CA/Oakland/540-30th-St-94609/home/525579
p725
aVhttps://www.redfin.com/CA/Oakland/553-30th-St-94609/home/1951364
p726
aVhttps://www.redfin.com/CA/Oakland/555-30th-St-94609/home/1887930
p727
aVhttps://www.redfin.com/CA/Oakland/535-30th-St-94609/home/1431365
p728
aVhttps://www.redfin.com/CA/Oakland/547-30th-St-94609/home/1355183
p729
aVhttps://www.redfin.com/CA/Oakland/546-30th-St-94609/unit-4/home/28963860
p730
aVhttps://www.redfin.com/CA/Oakland/543-30th-St-94609/home/1029628
p731
assI19
(dp732
g231
I83
sg232
I01
sg233
Vhttps://www.redfin.com/zipcode/94609/filter/include=sold-all,viewport=37.82046:37.81823:-122.26635:-122.26939
p733
sg235
I01
sg236
(lp734
Vhttps://www.redfin.com/CA/Oakland/546-30th-St-94609/unit-4/home/105426645
p735
aVhttps://www.redfin.com/CA/Oakland/546-30th-St-94609/unit-3/home/40079112
p736
aVhttps://www.redfin.com/CA/Oakland/2933-McClure-St-94609/unit-13/home/2113312
p737
aVhttps://www.redfin.com/CA/Oakland/532-30th-St-94609/unit-12/home/103457042
p738
aVhttps://www.redfin.com/CA/Oakland/564-29th-St-94609/home/105420686
p739
aVhttps://www.redfin.com/CA/Oakland/566-29th-St-94609/home/105420698
p740
aVhttps://www.redfin.com/CA/Oakland/560-29th-St-94609/home/50316687
p741
aVhttps://www.redfin.com/CA/Oakland/562-29th-St-94609/home/105420672
p742
aVhttps://www.redfin.com/CA/Oakland/2933-McClure-St-94609/unit-8/home/2113309
p743
aVhttps://www.redfin.com/CA/Oakland/532-30th-St-94609/unit-26/home/2114793
p744
aVhttps://www.redfin.com/CA/Oakland/532-30th-St-94609/unit-11/home/58637587
p745
aVhttps://www.redfin.com/CA/Oakland/535-29th-St-94609/home/17186413
p746
aVhttps://www.redfin.com/CA/Oakland/533-29th-St-94609/home/17186347
p747
aVhttps://www.redfin.com/CA/Oakland/532-30th-St-94609/unit-4/home/105427422
p748
aVhttps://www.redfin.com/CA/Oakland/531-29th-St-94609/home/17186301
p749
aVhttps://www.redfin.com/CA/Oakland/534-31st-St-94609/home/1830474
p750
aVhttps://www.redfin.com/CA/Oakland/532-30th-St-94609/unit-7/home/2113317
p751
aVhttps://www.redfin.com/CA/Oakland/532-30th-St-94609/unit-10/home/28442574
p752
aVhttps://www.redfin.com/CA/Oakland/532-30th-St-94609/unit-6/home/2113316
p753
aVhttps://www.redfin.com/CA/Oakland/532-30th-St-94609/unit-20/home/103453676
p754
aVhttps://www.redfin.com/CA/Oakland/532-30th-St-94609/unit-3/home/2113315
p755
aVhttps://www.redfin.com/CA/Oakland/2933-McClure-St-94609/unit-4/home/2113306
p756
aVhttps://www.redfin.com/CA/Oakland/516-31st-St-94609/home/1410748
p757
aVhttps://www.redfin.com/CA/Oakland/532-30th-St-94609/unit-21/home/2113433
p758
aVhttps://www.redfin.com/CA/Oakland/2933-McClure-St-94609/unit-12/home/2113311
p759
aVhttps://www.redfin.com/CA/Oakland/532-30th-St-94609/unit-13/home/2113142
p760
aVhttps://www.redfin.com/CA/Oakland/2933-McClure-St-94609/unit-3/home/2114786
p761
aVhttps://www.redfin.com/CA/Oakland/532-30th-St-94609/home/2114789
p762
aVhttps://www.redfin.com/CA/Oakland/532-30th-St-94609/unit-17/home/2114791
p763
aVhttps://www.redfin.com/CA/Oakland/556-30th-St-94609/unit-A/home/525558
p764
aVhttps://www.redfin.com/CA/Oakland/529-31st-St-94609/home/525582
p765
aVhttps://www.redfin.com/CA/Oakland/568-29th-St-94609/home/1887925
p766
aVhttps://www.redfin.com/CA/Oakland/546-30th-St-94609/unit-2/home/40079111
p767
aVhttps://www.redfin.com/CA/Oakland/549-29th-St-94609/home/28545203
p768
aVhttps://www.redfin.com/CA/Oakland/552-30th-St-94609/home/1830462
p769
aVhttps://www.redfin.com/CA/Oakland/546-30th-St-94609/unit-1/home/28963850
p770
aVhttps://www.redfin.com/CA/Oakland/532-30th-St-94609/unit-1/home/2113095
p771
aVhttps://www.redfin.com/CA/Oakland/2933-McClure-St-94609/unit-5/home/2113307
p772
aVhttps://www.redfin.com/CA/Oakland/2933-McClure-St-94609/unit-7/home/2113308
p773
aVhttps://www.redfin.com/CA/Oakland/532-30th-St-94609/unit-14/home/2113322
p774
aVhttps://www.redfin.com/CA/Oakland/532-30th-St-94609/unit-18/home/2113327
p775
aVhttps://www.redfin.com/CA/Oakland/532-30th-St-94609/unit-23/home/2113435
p776
aVhttps://www.redfin.com/CA/Oakland/2933-McClure-St-94609/unit-1/home/2114784
p777
aVhttps://www.redfin.com/CA/Oakland/2933-McClure-St-94609/unit-2/home/2114785
p778
aVhttps://www.redfin.com/CA/Oakland/2933-McClure-St-94609/unit-10/home/2114787
p779
aVhttps://www.redfin.com/CA/Oakland/2933-McClure-St-94609/unit-11/home/2114788
p780
aVhttps://www.redfin.com/CA/Oakland/532-30th-St-94609/home/2114790
p781
aVhttps://www.redfin.com/CA/Oakland/532-30th-St-94609/unit-25/home/2114792
p782
aVhttps://www.redfin.com/CA/Oakland/545-29th-St-94609/home/525552
p783
aVhttps://www.redfin.com/CA/Oakland/2948-Telegraph-Ave-94609/home/525553
p784
aVhttps://www.redfin.com/CA/Oakland/539-30th-St-94609/home/525576
p785
aVhttps://www.redfin.com/CA/Oakland/3027-Telegraph-Ave-94609/home/525578
p786
aVhttps://www.redfin.com/CA/Oakland/540-30th-St-94609/home/525579
p787
aVhttps://www.redfin.com/CA/Oakland/553-30th-St-94609/home/1951364
p788
aVhttps://www.redfin.com/CA/Oakland/2933-McClure-St-94609/unit-6/home/2115244
p789
aVhttps://www.redfin.com/CA/Oakland/520-31st-St-94609/home/1935877
p790
aVhttps://www.redfin.com/CA/Oakland/2945-McClure-St-94609/home/1854828
p791
aVhttps://www.redfin.com/CA/Oakland/555-30th-St-94609/home/1887930
p792
aVhttps://www.redfin.com/CA/Oakland/556-29th-St-94609/home/1627281
p793
aVhttps://www.redfin.com/CA/Oakland/535-30th-St-94609/home/1431365
p794
aVhttps://www.redfin.com/CA/Oakland/3121-Telegraph-Ave-94609/home/1464191
p795
aVhttps://www.redfin.com/CA/Oakland/537-31st-St-94609/home/1515301
p796
aVhttps://www.redfin.com/CA/Oakland/2935-Telegraph-Ave-94609/home/28696942
p797
aVhttps://www.redfin.com/CA/Oakland/553-29th-St-94609/home/1352439
p798
aVhttps://www.redfin.com/CA/Oakland/526-31st-St-94609/home/1909863
p799
aVhttps://www.redfin.com/CA/Oakland/547-30th-St-94609/home/1355183
p800
aVhttps://www.redfin.com/CA/Oakland/523-31st-St-94609/home/569815
p801
aVhttps://www.redfin.com/CA/Oakland/546-30th-St-94609/unit-4/home/28963860
p802
aVhttps://www.redfin.com/CA/Oakland/543-30th-St-94609/home/1029628
p803
aVhttps://www.redfin.com/CA/Oakland/532-30th-St-94609/unit-2/home/2113139
p804
aVhttps://www.redfin.com/CA/Oakland/532-30th-St-94609/unit-4/home/2113140
p805
aVhttps://www.redfin.com/CA/Oakland/532-30th-St-94609/unit-9/home/2113141
p806
aVhttps://www.redfin.com/CA/Oakland/532-30th-St-94609/unit-19/home/2113143
p807
aVhttps://www.redfin.com/CA/Oakland/2933-McClure-St-94609/unit-14/home/2113313
p808
aVhttps://www.redfin.com/CA/Oakland/532-30th-St-94609/home/2113318
p809
aVhttps://www.redfin.com/CA/Oakland/532-30th-St-94609/home/2113319
p810
aVhttps://www.redfin.com/CA/Oakland/532-30th-St-94609/unit-11/home/2113320
p811
aVhttps://www.redfin.com/CA/Oakland/532-30th-St-94609/home/2113321
p812
aVhttps://www.redfin.com/CA/Oakland/532-30th-St-94609/unit-15/home/2113323
p813
aVhttps://www.redfin.com/CA/Oakland/532-30th-St-94609/home/2113328
p814
aVhttps://www.redfin.com/CA/Oakland/532-30th-St-94609/unit-24/home/2113329
p815
aVhttps://www.redfin.com/CA/Oakland/532-30th-St-94609/home/2113434
p816
assI20
(dp817
g231
I16
sg232
I01
sg233
Vhttps://www.redfin.com/zipcode/94609/filter/include=sold-all,viewport=37.81908:37.81852:-122.26625:-122.26701
p818
sg235
I01
sg236
(lp819
Vhttps://www.redfin.com/CA/Oakland/2933-McClure-St-94609/unit-13/home/2113312
p820
aVhttps://www.redfin.com/CA/Oakland/2933-McClure-St-94609/unit-8/home/2113309
p821
aVhttps://www.redfin.com/CA/Oakland/2933-McClure-St-94609/unit-4/home/2113306
p822
aVhttps://www.redfin.com/CA/Oakland/2933-McClure-St-94609/unit-12/home/2113311
p823
aVhttps://www.redfin.com/CA/Oakland/2933-McClure-St-94609/unit-3/home/2114786
p824
aVhttps://www.redfin.com/CA/Oakland/2933-McClure-St-94609/unit-5/home/2113307
p825
aVhttps://www.redfin.com/CA/Oakland/2933-McClure-St-94609/unit-7/home/2113308
p826
aVhttps://www.redfin.com/CA/Oakland/2933-McClure-St-94609/unit-1/home/2114784
p827
aVhttps://www.redfin.com/CA/Oakland/2933-McClure-St-94609/unit-2/home/2114785
p828
aVhttps://www.redfin.com/CA/Oakland/2933-McClure-St-94609/unit-10/home/2114787
p829
aVhttps://www.redfin.com/CA/Oakland/2933-McClure-St-94609/unit-11/home/2114788
p830
aVhttps://www.redfin.com/CA/Oakland/2948-Telegraph-Ave-94609/home/525553
p831
aVhttps://www.redfin.com/CA/Oakland/2933-McClure-St-94609/unit-6/home/2115244
p832
aVhttps://www.redfin.com/CA/Oakland/2945-McClure-St-94609/home/1854828
p833
aVhttps://www.redfin.com/CA/Oakland/2933-McClure-St-94609/unit-14/home/2113313
p834
assI21
(dp835
g231
I13
sg232
I01
sg233
Vhttps://www.redfin.com/zipcode/94609/filter/include=sold-all,viewport=37.82116:37.82005:-122.26699:-122.26852
p836
sg235
I01
sg236
(lp837
Vhttps://www.redfin.com/CA/Oakland/3127-Telegraph-Ave-94609/home/1562490
p838
aVhttps://www.redfin.com/CA/Oakland/545-32nd-St-94609/home/1531625
p839
aVhttps://www.redfin.com/CA/Oakland/540-31st-St-94609/home/1156903
p840
aVhttps://www.redfin.com/CA/Oakland/534-31st-St-94609/home/1830474
p841
aVhttps://www.redfin.com/CA/Oakland/516-31st-St-94609/home/1410748
p842
aVhttps://www.redfin.com/CA/Oakland/550-31st-St-94609/home/525588
p843
aVhttps://www.redfin.com/CA/Oakland/531-32nd-St-94609/home/1575370
p844
aVhttps://www.redfin.com/CA/Oakland/520-31st-St-94609/home/1935877
p845
aVhttps://www.redfin.com/CA/Oakland/3121-Telegraph-Ave-94609/home/1464191
p846
aVhttps://www.redfin.com/CA/Oakland/517-32nd-St-94609/home/628987
p847
aVhttps://www.redfin.com/CA/Oakland/526-31st-St-94609/home/1909863
p848
aVhttps://www.redfin.com/CA/Oakland/528-31st-St-94609/home/1980934
p849
aVhttps://www.redfin.com/CA/Oakland/527-32nd-St-94609/home/1653496
p850
assI22
(dp851
g231
I39
sg232
I01
sg233
Vhttps://www.redfin.com/zipcode/94609/filter/include=sold-all,viewport=37.8227:37.82047:-122.2654:-122.26844
p852
sg235
I01
sg236
(lp853
Vhttps://www.redfin.com/CA/Oakland/3127-Telegraph-Ave-94609/home/1562490
p854
aVhttps://www.redfin.com/CA/Oakland/515-33rd-St-94609/home/1832250
p855
aVhttps://www.redfin.com/CA/Oakland/545-32nd-St-94609/home/1531625
p856
aVhttps://www.redfin.com/CA/Oakland/540-32nd-St-94609/home/1880027
p857
aVhttps://www.redfin.com/CA/Oakland/3217-Telegraph-Ave-94609/home/525589
p858
aVhttps://www.redfin.com/CA/Oakland/540-31st-St-94609/home/1156903
p859
aVhttps://www.redfin.com/CA/Oakland/559-34th-St-94609/home/1416428
p860
aVhttps://www.redfin.com/CA/Oakland/3240-Telegraph-Ave-94609/unit-3240/home/52617350
p861
aVhttps://www.redfin.com/CA/Oakland/556-33rd-St-94609/home/525622
p862
aVhttps://www.redfin.com/CA/Oakland/3240-Telegraph-Ave-94609/unit-A/home/62179999
p863
aVhttps://www.redfin.com/CA/Oakland/544-32nd-St-94609/home/530550
p864
aVhttps://www.redfin.com/CA/Oakland/516-32nd-St-94609/home/810789
p865
aVhttps://www.redfin.com/CA/Oakland/555-33rd-St-94609/home/1799771
p866
aVhttps://www.redfin.com/CA/Oakland/3239-Elm-St-94609/home/1475859
p867
aVhttps://www.redfin.com/CA/Oakland/550-31st-St-94609/home/525588
p868
aVhttps://www.redfin.com/CA/Oakland/547-33rd-St-94609/home/525592
p869
aVhttps://www.redfin.com/CA/Oakland/521-33rd-St-94609/home/525593
p870
aVhttps://www.redfin.com/CA/Oakland/507-33rd-St-94609/home/525594
p871
aVhttps://www.redfin.com/CA/Oakland/506-33rd-St-94609/home/525621
p872
aVhttps://www.redfin.com/CA/Oakland/539-33rd-St-94609/home/525698
p873
aVhttps://www.redfin.com/CA/Oakland/526-33rd-St-94609/home/525747
p874
aVhttps://www.redfin.com/CA/Oakland/531-32nd-St-94609/home/1575370
p875
aVhttps://www.redfin.com/CA/Oakland/3231-Telegraph-Ave-94609/home/1986211
p876
aVhttps://www.redfin.com/CA/Oakland/3239-Telegraph-Ave-94609/home/1266881
p877
aVhttps://www.redfin.com/CA/Oakland/3315-Telegraph-Ave-94609/home/1725788
p878
aVhttps://www.redfin.com/CA/Oakland/526-32nd-St-94609/home/1807832
p879
aVhttps://www.redfin.com/CA/Oakland/3305-Elm-St-94609/home/1562237
p880
aVhttps://www.redfin.com/CA/Oakland/525-34th-St-94609/home/1464193
p881
aVhttps://www.redfin.com/CA/Oakland/517-32nd-St-94609/home/628987
p882
aVhttps://www.redfin.com/CA/Oakland/508-33rd-St-94609/home/1284433
p883
aVhttps://www.redfin.com/CA/Oakland/505-33rd-St-94609/home/1924340
p884
aVhttps://www.redfin.com/CA/Oakland/530-32nd-St-94609/home/1828869
p885
aVhttps://www.redfin.com/CA/Oakland/514-33rd-St-94609/home/1321682
p886
aVhttps://www.redfin.com/CA/Oakland/3223-Telegraph-Ave-94609/home/17183090
p887
aVhttps://www.redfin.com/CA/Oakland/541-33rd-St-94609/home/2044503
p888
aVhttps://www.redfin.com/CA/Oakland/537-34th-St-94609/home/864997
p889
aVhttps://www.redfin.com/CA/Oakland/536-32nd-St-94609/home/996750
p890
aVhttps://www.redfin.com/CA/Oakland/528-31st-St-94609/home/1980934
p891
aVhttps://www.redfin.com/CA/Oakland/527-32nd-St-94609/home/1653496
p892
assI23
(dp893
g231
I419
sg232
I01
sg233
Vhttps://www.redfin.com/zipcode/94609/filter/include=sold-all,viewport=37.82655:37.81765:-122.26522:-122.27738
p894
sg235
I01
ssI24
(dp895
g235
I00
sssS'subClustersOver350'
p896
(lp897
sS'pctObtained'
p898
F0.1766109785202864
sg144
S'yes'
p899
sS'numSubClusters'
p900
I26
ss.